target datalayout = "e-m:e-p270:32:32-p271:32:32-p272:64:64-i64:64-i128:128-f80:128-n8:16:32:64-S128"
target triple = "x86_64-unknown-linux-gnu"

%"class.grpc_core::TraceFlag" = type <{ ptr, ptr, %"struct.std::atomic", [7 x i8] }>
%"struct.std::atomic" = type { %"struct.std::__atomic_base" }
%"struct.std::__atomic_base" = type { i8 }
%"struct.std::_Rb_tree_header" = type { %"struct.std::_Rb_tree_node_base", i64 }
%"struct.std::_Rb_tree_node_base" = type { i32, ptr, ptr, ptr }
%"struct.std::_Rb_tree_key_compare.61" = type { %"struct.std::less.62" }
%"struct.std::less.62" = type { i8 }
%"class.grpc_core::RefCounted" = type { %"class.grpc_core::PolymorphicRefCount", %"class.grpc_core::RefCount" }
%"class.grpc_core::PolymorphicRefCount" = type { ptr }
%"class.grpc_core::RefCount" = type { %"struct.std::atomic.116" }
%"struct.std::atomic.116" = type { %"struct.std::__atomic_base.117" }
%"struct.std::__atomic_base.117" = type { i64 }
%"class.grpc_core::RefCountedPtr.142" = type { ptr }
%"class.std::shared_ptr" = type { %"class.std::__shared_ptr" }
%"class.std::__shared_ptr" = type { ptr, %"class.std::__shared_count" }
%"class.std::__shared_count" = type { ptr }
%"class.std::unique_ptr.151" = type { %"struct.std::__uniq_ptr_data.152" }
%"struct.std::__uniq_ptr_data.152" = type { %"class.std::__uniq_ptr_impl.153" }
%"class.std::__uniq_ptr_impl.153" = type { %"class.std::tuple.154" }
%"class.std::tuple.154" = type { %"struct.std::_Tuple_impl.155" }
%"struct.std::_Tuple_impl.155" = type { %"struct.std::_Head_base.158" }
%"struct.std::_Head_base.158" = type { ptr }
%"class.grpc_core::ChannelArgs" = type { %"class.grpc_core::AVL" }
%"class.grpc_core::AVL" = type { %"class.grpc_core::RefCountedPtr.159" }
%"class.grpc_core::RefCountedPtr.159" = type { ptr }
%"class.grpc_core::(anonymous namespace)::WeightedTargetLb" = type { %"class.grpc_core::LoadBalancingPolicy", %"class.grpc_core::RefCountedPtr.142", i8, i8, %"class.std::map.166" }
%"class.grpc_core::LoadBalancingPolicy" = type { %"class.grpc_core::InternallyRefCounted", %"class.std::shared_ptr", ptr, %"class.std::unique_ptr.151", %"class.grpc_core::ChannelArgs" }
%"class.grpc_core::InternallyRefCounted" = type { %"class.grpc_core::Orphanable", %"class.grpc_core::RefCount" }
%"class.grpc_core::Orphanable" = type { ptr }
%"class.std::map.166" = type { %"class.std::_Rb_tree.167" }
%"class.std::_Rb_tree.167" = type { %"struct.std::_Rb_tree<std::__cxx11::basic_string<char>, std::pair<const std::__cxx11::basic_string<char>, std::unique_ptr<grpc_core::(anonymous namespace)::WeightedTargetLb::WeightedChild, grpc_core::OrphanableDelete>>, std::_Select1st<std::pair<const std::__cxx11::basic_string<char>, std::unique_ptr<grpc_core::(anonymous namespace)::WeightedTargetLb::WeightedChild, grpc_core::OrphanableDelete>>>, std::less<std::__cxx11::basic_string<char>>>::_Rb_tree_impl" }
%"struct.std::_Rb_tree<std::__cxx11::basic_string<char>, std::pair<const std::__cxx11::basic_string<char>, std::unique_ptr<grpc_core::(anonymous namespace)::WeightedTargetLb::WeightedChild, grpc_core::OrphanableDelete>>, std::_Select1st<std::pair<const std::__cxx11::basic_string<char>, std::unique_ptr<grpc_core::(anonymous namespace)::WeightedTargetLb::WeightedChild, grpc_core::OrphanableDelete>>>, std::less<std::__cxx11::basic_string<char>>>::_Rb_tree_impl" = type { %"struct.std::_Rb_tree_key_compare.61", %"struct.std::_Rb_tree_header" }

@_ZN9grpc_core29grpc_lb_weighted_target_traceE = global %"class.grpc_core::TraceFlag" zeroinitializer, align 8
@.str.18 = private unnamed_addr constant [168 x i8] c"generated/home/dtcxzyw/WorkSpace/Projects/compilers/llvm-opt-benchmark/bench/grpc/grpc/src/core/ext/filters/client_channel/lb_policy/weighted_target/weighted_target.cc\00", align 1
@.str.20 = private unnamed_addr constant [61 x i8] c"[weighted_target_lb %p] destroying weighted_target LB policy\00", align 1

; Function Attrs: mustprogress nounwind uwtable
define internal void @_ZNSt15__new_allocatorISt13_Rb_tree_nodeISt4pairIKNSt7__cxx1112basic_stringIcSt11char_traitsIcESaIcEEESt10unique_ptrIN9grpc_core12_GLOBAL__N_116WeightedTargetLb13WeightedChildENSA_16OrphanableDeleteEEEEED2Ev(ptr noundef nonnull align 1 dereferenceable(1) %this) unnamed_addr #5 align 2 {
entry:
  %this.addr = alloca ptr, align 8
  store ptr %this, ptr %this.addr, align 8
  ret void
}

; Function Attrs: mustprogress nounwind uwtable
define internal void @_ZNSaISt13_Rb_tree_nodeISt4pairIKNSt7__cxx1112basic_stringIcSt11char_traitsIcESaIcEEESt10unique_ptrIN9grpc_core12_GLOBAL__N_116WeightedTargetLb13WeightedChildENS9_16OrphanableDeleteEEEEED2Ev(ptr noundef nonnull align 1 dereferenceable(1) %this) unnamed_addr #5 align 2 {
entry:
  %this.addr = alloca ptr, align 8
  store ptr %this, ptr %this.addr, align 8
  %this1 = load ptr, ptr %this.addr, align 8
  call void @_ZNSt15__new_allocatorISt13_Rb_tree_nodeISt4pairIKNSt7__cxx1112basic_stringIcSt11char_traitsIcESaIcEEESt10unique_ptrIN9grpc_core12_GLOBAL__N_116WeightedTargetLb13WeightedChildENSA_16OrphanableDeleteEEEEED2Ev(ptr noundef nonnull align 1 dereferenceable(1) %this1) #3
  ret void
}

; Function Attrs: mustprogress nounwind uwtable
define internal noundef ptr @_ZNKSt8_Rb_treeINSt7__cxx1112basic_stringIcSt11char_traitsIcESaIcEEESt4pairIKS5_St10unique_ptrIN9grpc_core12_GLOBAL__N_116WeightedTargetLb13WeightedChildENS9_16OrphanableDeleteEEESt10_Select1stISF_ESt4lessIS5_ESaISF_EE9_M_mbeginEv(ptr noundef nonnull align 8 dereferenceable(48) %this) #5 align 2 {
entry:
  %this.addr = alloca ptr, align 8
  store ptr %this, ptr %this.addr, align 8
  %this1 = load ptr, ptr %this.addr, align 8
  %_M_impl = getelementptr inbounds %"class.std::_Rb_tree.167", ptr %this1, i32 0, i32 0
  %add.ptr = getelementptr inbounds i8, ptr %_M_impl, i64 8
  %_M_header = getelementptr inbounds %"struct.std::_Rb_tree_header", ptr %add.ptr, i32 0, i32 0
  %_M_parent = getelementptr inbounds %"struct.std::_Rb_tree_node_base", ptr %_M_header, i32 0, i32 1
  %0 = load ptr, ptr %_M_parent, align 8
  ret ptr %0
}

; Function Attrs: mustprogress nounwind uwtable
define linkonce_odr void @_ZNK9grpc_core11UnrefDeleteclIKNS_19LoadBalancingPolicy6ConfigEEEvPT_(ptr noundef nonnull align 1 dereferenceable(1) %this, ptr noundef %p) #5 comdat align 2 {
entry:
  %this.addr = alloca ptr, align 8
  %p.addr = alloca ptr, align 8
  store ptr %this, ptr %this.addr, align 8
  store ptr %p, ptr %p.addr, align 8
  %0 = load ptr, ptr %p.addr, align 8
  %isnull = icmp eq ptr %0, null
  br i1 %isnull, label %delete.end, label %delete.notnull

delete.notnull:                                   ; preds = %entry
  %vtable = load ptr, ptr %0, align 8
  %vfn = getelementptr inbounds ptr, ptr %vtable, i64 1
  %1 = load ptr, ptr %vfn, align 8
  call void %1(ptr noundef nonnull align 8 dereferenceable(16) %0) #3
  br label %delete.end

delete.end:                                       ; preds = %delete.notnull, %entry
  ret void
}

; Function Attrs: mustprogress nounwind uwtable
define linkonce_odr noundef zeroext i1 @_ZN9grpc_core8RefCount5UnrefEv(ptr noundef nonnull align 8 dereferenceable(8) %this) #5 comdat align 2 {
entry:
  %this.addr.i = alloca ptr, align 8
  %__i.addr.i = alloca i64, align 8
  %__m.addr.i = alloca i32, align 4
  %.atomictmp.i = alloca i64, align 8
  %atomic-temp.i = alloca i64, align 8
  %this.addr = alloca ptr, align 8
  %prior = alloca i64, align 8
  store ptr %this, ptr %this.addr, align 8
  %this1 = load ptr, ptr %this.addr, align 8
  %value_ = getelementptr inbounds %"class.grpc_core::RefCount", ptr %this1, i32 0, i32 0
  store ptr %value_, ptr %this.addr.i, align 8
  store i64 1, ptr %__i.addr.i, align 8
  store i32 4, ptr %__m.addr.i, align 4
  %this1.i = load ptr, ptr %this.addr.i, align 8
  %0 = load i32, ptr %__m.addr.i, align 4
  %1 = load i64, ptr %__i.addr.i, align 8
  store i64 %1, ptr %.atomictmp.i, align 8
  switch i32 %0, label %monotonic.i [
    i32 1, label %acquire.i
    i32 2, label %acquire.i
    i32 3, label %release.i
    i32 4, label %acqrel.i
    i32 5, label %seqcst.i
  ]

monotonic.i:                                      ; preds = %entry
  %2 = load i64, ptr %.atomictmp.i, align 8
  %3 = atomicrmw sub ptr %this1.i, i64 %2 monotonic, align 8
  store i64 %3, ptr %atomic-temp.i, align 8
  br label %_ZNSt13__atomic_baseIlE9fetch_subElSt12memory_order.exit

acquire.i:                                        ; preds = %entry, %entry
  %4 = load i64, ptr %.atomictmp.i, align 8
  %5 = atomicrmw sub ptr %this1.i, i64 %4 acquire, align 8
  store i64 %5, ptr %atomic-temp.i, align 8
  br label %_ZNSt13__atomic_baseIlE9fetch_subElSt12memory_order.exit

release.i:                                        ; preds = %entry
  %6 = load i64, ptr %.atomictmp.i, align 8
  %7 = atomicrmw sub ptr %this1.i, i64 %6 release, align 8
  store i64 %7, ptr %atomic-temp.i, align 8
  br label %_ZNSt13__atomic_baseIlE9fetch_subElSt12memory_order.exit

acqrel.i:                                         ; preds = %entry
  %8 = load i64, ptr %.atomictmp.i, align 8
  %9 = atomicrmw sub ptr %this1.i, i64 %8 acq_rel, align 8
  store i64 %9, ptr %atomic-temp.i, align 8
  br label %_ZNSt13__atomic_baseIlE9fetch_subElSt12memory_order.exit

seqcst.i:                                         ; preds = %entry
  %10 = load i64, ptr %.atomictmp.i, align 8
  %11 = atomicrmw sub ptr %this1.i, i64 %10 seq_cst, align 8
  store i64 %11, ptr %atomic-temp.i, align 8
  br label %_ZNSt13__atomic_baseIlE9fetch_subElSt12memory_order.exit

_ZNSt13__atomic_baseIlE9fetch_subElSt12memory_order.exit: ; preds = %seqcst.i, %acqrel.i, %release.i, %acquire.i, %monotonic.i
  %12 = load i64, ptr %atomic-temp.i, align 8
  store i64 %12, ptr %prior, align 8
  %13 = load i64, ptr %prior, align 8
  %cmp = icmp eq i64 %13, 1
  ret i1 %cmp
}

; Function Attrs: mustprogress nounwind uwtable
define internal void @_ZNSt8_Rb_treeINSt7__cxx1112basic_stringIcSt11char_traitsIcESaIcEEESt4pairIKS5_St10unique_ptrIN9grpc_core12_GLOBAL__N_116WeightedTargetLb13WeightedChildENS9_16OrphanableDeleteEEESt10_Select1stISF_ESt4lessIS5_ESaISF_EE13_Rb_tree_implISJ_Lb1EED2Ev(ptr noundef nonnull align 8 dereferenceable(48) %this) unnamed_addr #5 align 2 {
entry:
  %this.addr = alloca ptr, align 8
  store ptr %this, ptr %this.addr, align 8
  %this1 = load ptr, ptr %this.addr, align 8
  call void @_ZNSaISt13_Rb_tree_nodeISt4pairIKNSt7__cxx1112basic_stringIcSt11char_traitsIcESaIcEEESt10unique_ptrIN9grpc_core12_GLOBAL__N_116WeightedTargetLb13WeightedChildENS9_16OrphanableDeleteEEEEED2Ev(ptr noundef nonnull align 1 dereferenceable(1) %this1) #3
  ret void
}

; Function Attrs: mustprogress nounwind uwtable
define internal noundef ptr @_ZNSt8_Rb_treeINSt7__cxx1112basic_stringIcSt11char_traitsIcESaIcEEESt4pairIKS5_St10unique_ptrIN9grpc_core12_GLOBAL__N_116WeightedTargetLb13WeightedChildENS9_16OrphanableDeleteEEESt10_Select1stISF_ESt4lessIS5_ESaISF_EE8_M_beginEv(ptr noundef nonnull align 8 dereferenceable(48) %this) #5 align 2 {
entry:
  %this.addr = alloca ptr, align 8
  store ptr %this, ptr %this.addr, align 8
  %this1 = load ptr, ptr %this.addr, align 8
  %call = call noundef ptr @_ZNKSt8_Rb_treeINSt7__cxx1112basic_stringIcSt11char_traitsIcESaIcEEESt4pairIKS5_St10unique_ptrIN9grpc_core12_GLOBAL__N_116WeightedTargetLb13WeightedChildENS9_16OrphanableDeleteEEESt10_Select1stISF_ESt4lessIS5_ESaISF_EE9_M_mbeginEv(ptr noundef nonnull align 8 dereferenceable(48) %this1) #3
  ret ptr %call
}

; Function Attrs: mustprogress nounwind uwtable
define linkonce_odr noundef i32 @_ZStanSt12memory_orderSt23__memory_order_modifier(i32 noundef %__m, i32 noundef %__mod) #5 comdat {
entry:
  %__m.addr = alloca i32, align 4
  %__mod.addr = alloca i32, align 4
  store i32 %__m, ptr %__m.addr, align 4
  store i32 %__mod, ptr %__mod.addr, align 4
  %0 = load i32, ptr %__m.addr, align 4
  %1 = load i32, ptr %__mod.addr, align 4
  %and = and i32 %0, %1
  ret i32 %and
}

; Function Attrs: mustprogress uwtable
define linkonce_odr void @_ZNK9grpc_core10RefCountedINS_19LoadBalancingPolicy6ConfigENS_19PolymorphicRefCountENS_11UnrefDeleteEE5UnrefEv(ptr noundef nonnull align 8 dereferenceable(16) %this) #4 comdat align 2 {
entry:
  %this.addr = alloca ptr, align 8
  store ptr %this, ptr %this.addr, align 8
  %this1 = load ptr, ptr %this.addr, align 8
  %refs_ = getelementptr inbounds %"class.grpc_core::RefCounted", ptr %this1, i32 0, i32 1
  %call = call noundef zeroext i1 @_ZN9grpc_core8RefCount5UnrefEv(ptr noundef nonnull align 8 dereferenceable(8) %refs_)
  br i1 %call, label %if.then, label %if.end

if.then:                                          ; preds = %entry
  call void @_ZNK9grpc_core11UnrefDeleteclIKNS_19LoadBalancingPolicy6ConfigEEEvPT_(ptr noundef nonnull align 1 dereferenceable(1) %this1, ptr noundef %this1)
  br label %if.end

if.end:                                           ; preds = %if.then, %entry
  ret void
}

; Function Attrs: mustprogress nounwind uwtable
define internal void @_ZNSt8_Rb_treeINSt7__cxx1112basic_stringIcSt11char_traitsIcESaIcEEESt4pairIKS5_St10unique_ptrIN9grpc_core12_GLOBAL__N_116WeightedTargetLb13WeightedChildENS9_16OrphanableDeleteEEESt10_Select1stISF_ESt4lessIS5_ESaISF_EED2Ev(ptr noundef nonnull align 8 dereferenceable(48) %this) unnamed_addr #5 align 2 personality ptr @__gxx_personality_v0 {
entry:
  %this.addr = alloca ptr, align 8
  store ptr %this, ptr %this.addr, align 8
  %this1 = load ptr, ptr %this.addr, align 8
  %call = call noundef ptr @_ZNSt8_Rb_treeINSt7__cxx1112basic_stringIcSt11char_traitsIcESaIcEEESt4pairIKS5_St10unique_ptrIN9grpc_core12_GLOBAL__N_116WeightedTargetLb13WeightedChildENS9_16OrphanableDeleteEEESt10_Select1stISF_ESt4lessIS5_ESaISF_EE8_M_beginEv(ptr noundef nonnull align 8 dereferenceable(48) %this1) #3
  invoke void @_ZNSt8_Rb_treeINSt7__cxx1112basic_stringIcSt11char_traitsIcESaIcEEESt4pairIKS5_St10unique_ptrIN9grpc_core12_GLOBAL__N_116WeightedTargetLb13WeightedChildENS9_16OrphanableDeleteEEESt10_Select1stISF_ESt4lessIS5_ESaISF_EE8_M_eraseEPSt13_Rb_tree_nodeISF_E(ptr noundef nonnull align 8 dereferenceable(48) %this1, ptr noundef %call)
          to label %invoke.cont unwind label %terminate.lpad

invoke.cont:                                      ; preds = %entry
  %_M_impl = getelementptr inbounds %"class.std::_Rb_tree.167", ptr %this1, i32 0, i32 0
  call void @_ZNSt8_Rb_treeINSt7__cxx1112basic_stringIcSt11char_traitsIcESaIcEEESt4pairIKS5_St10unique_ptrIN9grpc_core12_GLOBAL__N_116WeightedTargetLb13WeightedChildENS9_16OrphanableDeleteEEESt10_Select1stISF_ESt4lessIS5_ESaISF_EE13_Rb_tree_implISJ_Lb1EED2Ev(ptr noundef nonnull align 8 dereferenceable(48) %_M_impl) #3
  ret void

terminate.lpad:                                   ; preds = %entry
  %0 = landingpad { ptr, i32 }
          catch ptr null
  %1 = extractvalue { ptr, i32 } %0, 0
  call void @__clang_call_terminate(ptr %1) #18
  unreachable
}

; Function Attrs: mustprogress nounwind uwtable
define linkonce_odr noundef zeroext i1 @_ZNKSt6atomicIbE4loadESt12memory_order(ptr noundef nonnull align 1 dereferenceable(1) %this, i32 noundef %__m) #5 comdat align 2 {
entry:
  %this.addr.i = alloca ptr, align 8
  %__m.addr.i = alloca i32, align 4
  %__b.i = alloca i32, align 4
  %atomic-temp.i = alloca i8, align 1
  %this.addr = alloca ptr, align 8
  %__m.addr = alloca i32, align 4
  store ptr %this, ptr %this.addr, align 8
  store i32 %__m, ptr %__m.addr, align 4
  %this1 = load ptr, ptr %this.addr, align 8
  %_M_base = getelementptr inbounds %"struct.std::atomic", ptr %this1, i32 0, i32 0
  %0 = load i32, ptr %__m.addr, align 4
  store ptr %_M_base, ptr %this.addr.i, align 8
  store i32 %0, ptr %__m.addr.i, align 4
  %this1.i = load ptr, ptr %this.addr.i, align 8
  %1 = load i32, ptr %__m.addr.i, align 4
  %call.i = call noundef i32 @_ZStanSt12memory_orderSt23__memory_order_modifier(i32 noundef %1, i32 noundef 65535)
  store i32 %call.i, ptr %__b.i, align 4
  %2 = load i32, ptr %__m.addr.i, align 4
  switch i32 %2, label %monotonic.i [
    i32 1, label %acquire.i
    i32 2, label %acquire.i
    i32 5, label %seqcst.i
  ]

monotonic.i:                                      ; preds = %entry
  %3 = load atomic i8, ptr %this1.i monotonic, align 1
  store i8 %3, ptr %atomic-temp.i, align 1
  br label %_ZNKSt13__atomic_baseIbE4loadESt12memory_order.exit

acquire.i:                                        ; preds = %entry, %entry
  %4 = load atomic i8, ptr %this1.i acquire, align 1
  store i8 %4, ptr %atomic-temp.i, align 1
  br label %_ZNKSt13__atomic_baseIbE4loadESt12memory_order.exit

seqcst.i:                                         ; preds = %entry
  %5 = load atomic i8, ptr %this1.i seq_cst, align 1
  store i8 %5, ptr %atomic-temp.i, align 1
  br label %_ZNKSt13__atomic_baseIbE4loadESt12memory_order.exit

_ZNKSt13__atomic_baseIbE4loadESt12memory_order.exit: ; preds = %seqcst.i, %acquire.i, %monotonic.i
  %6 = load i8, ptr %atomic-temp.i, align 1
  %tobool.i = trunc i8 %6 to i1
  ret i1 %tobool.i
}

; Function Attrs: mustprogress nounwind uwtable
define internal void @_ZN9grpc_core13RefCountedPtrINS_12_GLOBAL__N_122WeightedTargetLbConfigEED2Ev(ptr noundef nonnull align 8 dereferenceable(8) %this) unnamed_addr #5 align 2 personality ptr @__gxx_personality_v0 {
entry:
  %this.addr = alloca ptr, align 8
  store ptr %this, ptr %this.addr, align 8
  %this1 = load ptr, ptr %this.addr, align 8
  %value_ = getelementptr inbounds %"class.grpc_core::RefCountedPtr.142", ptr %this1, i32 0, i32 0
  %0 = load ptr, ptr %value_, align 8
  %cmp = icmp ne ptr %0, null
  br i1 %cmp, label %if.then, label %if.end

if.then:                                          ; preds = %entry
  %value_2 = getelementptr inbounds %"class.grpc_core::RefCountedPtr.142", ptr %this1, i32 0, i32 0
  %1 = load ptr, ptr %value_2, align 8
  invoke void @_ZNK9grpc_core10RefCountedINS_19LoadBalancingPolicy6ConfigENS_19PolymorphicRefCountENS_11UnrefDeleteEE5UnrefEv(ptr noundef nonnull align 8 dereferenceable(16) %1)
          to label %invoke.cont unwind label %terminate.lpad

invoke.cont:                                      ; preds = %if.then
  br label %if.end

if.end:                                           ; preds = %invoke.cont, %entry
  ret void

terminate.lpad:                                   ; preds = %if.then
  %2 = landingpad { ptr, i32 }
          catch ptr null
  %3 = extractvalue { ptr, i32 } %2, 0
  call void @__clang_call_terminate(ptr %3) #18
  unreachable
}

; Function Attrs: mustprogress nounwind uwtable
define internal void @_ZNSt3mapINSt7__cxx1112basic_stringIcSt11char_traitsIcESaIcEEESt10unique_ptrIN9grpc_core12_GLOBAL__N_116WeightedTargetLb13WeightedChildENS7_16OrphanableDeleteEESt4lessIS5_ESaISt4pairIKS5_SC_EEED2Ev(ptr noundef nonnull align 8 dereferenceable(48) %this) unnamed_addr #5 align 2 {
entry:
  %this.addr = alloca ptr, align 8
  store ptr %this, ptr %this.addr, align 8
  %this1 = load ptr, ptr %this.addr, align 8
  %_M_t = getelementptr inbounds %"class.std::map.166", ptr %this1, i32 0, i32 0
  call void @_ZNSt8_Rb_treeINSt7__cxx1112basic_stringIcSt11char_traitsIcESaIcEEESt4pairIKS5_St10unique_ptrIN9grpc_core12_GLOBAL__N_116WeightedTargetLb13WeightedChildENS9_16OrphanableDeleteEEESt10_Select1stISF_ESt4lessIS5_ESaISF_EED2Ev(ptr noundef nonnull align 8 dereferenceable(48) %_M_t) #3
  ret void
}

; Function Attrs: mustprogress nounwind uwtable
define linkonce_odr noundef zeroext i1 @_ZN9grpc_core9TraceFlag7enabledEv(ptr noundef nonnull align 8 dereferenceable(17) %this) #5 comdat align 2 {
entry:
  %this.addr = alloca ptr, align 8
  store ptr %this, ptr %this.addr, align 8
  %this1 = load ptr, ptr %this.addr, align 8
  %value_ = getelementptr inbounds %"class.grpc_core::TraceFlag", ptr %this1, i32 0, i32 2
  %call = call noundef zeroext i1 @_ZNKSt6atomicIbE4loadESt12memory_order(ptr noundef nonnull align 1 dereferenceable(1) %value_, i32 noundef 0) #3
  ret i1 %call
}

; Function Attrs: mustprogress nounwind uwtable
define internal void @_ZN9grpc_core12_GLOBAL__N_116WeightedTargetLbD2Ev(ptr noundef nonnull align 8 dereferenceable(120) %this) unnamed_addr #5 align 2 personality ptr @__gxx_personality_v0 {
entry:
  %this.addr = alloca ptr, align 8
  store ptr %this, ptr %this.addr, align 8
  %this1 = load ptr, ptr %this.addr, align 8
  store ptr getelementptr inbounds ({ [10 x ptr] }, ptr @_ZTVN9grpc_core12_GLOBAL__N_116WeightedTargetLbE, i32 0, i32 0, i32 2), ptr %this1, align 8
  %call = call noundef zeroext i1 @_ZN9grpc_core9TraceFlag7enabledEv(ptr noundef nonnull align 8 dereferenceable(17) @_ZN9grpc_core29grpc_lb_weighted_target_traceE)
  br i1 %call, label %if.then, label %if.end

if.then:                                          ; preds = %entry
  invoke void (ptr, i32, i32, ptr, ...) @gpr_log(ptr noundef @.str.18, i32 noundef 294, i32 noundef 1, ptr noundef @.str.20, ptr noundef %this1)
          to label %invoke.cont unwind label %terminate.lpad

invoke.cont:                                      ; preds = %if.then
  br label %if.end

if.end:                                           ; preds = %invoke.cont, %entry
  %targets_ = getelementptr inbounds %"class.grpc_core::(anonymous namespace)::WeightedTargetLb", ptr %this1, i32 0, i32 4
  call void @_ZNSt3mapINSt7__cxx1112basic_stringIcSt11char_traitsIcESaIcEEESt10unique_ptrIN9grpc_core12_GLOBAL__N_116WeightedTargetLb13WeightedChildENS7_16OrphanableDeleteEESt4lessIS5_ESaISt4pairIKS5_SC_EEED2Ev(ptr noundef nonnull align 8 dereferenceable(48) %targets_) #3
  %config_ = getelementptr inbounds %"class.grpc_core::(anonymous namespace)::WeightedTargetLb", ptr %this1, i32 0, i32 1
  call void @_ZN9grpc_core13RefCountedPtrINS_12_GLOBAL__N_122WeightedTargetLbConfigEED2Ev(ptr noundef nonnull align 8 dereferenceable(8) %config_) #3
  call void @_ZN9grpc_core19LoadBalancingPolicyD2Ev(ptr noundef nonnull align 8 dereferenceable(56) %this1) #3
  ret void

terminate.lpad:                                   ; preds = %if.then
  %0 = landingpad { ptr, i32 }
          catch ptr null
  %1 = extractvalue { ptr, i32 } %0, 0
  call void @__clang_call_terminate(ptr %1) #18
  unreachable
}