; Function Attrs: mustprogress nounwind uwtable
define internal void @_ZN9grpc_core12_GLOBAL__N_116WeightedTargetLbD2Ev(ptr noundef nonnull align 8 dereferenceable(120) %this) unnamed_addr #11 align 2 personality ptr @__gxx_personality_v0 {
entry:
  store ptr getelementptr inbounds ({ [10 x ptr] }, ptr @_ZTVN9grpc_core12_GLOBAL__N_116WeightedTargetLbE, i64 0, i32 0, i64 2), ptr %this, align 8
  %0 = load atomic i8, ptr getelementptr inbounds (%"class.grpc_core::TraceFlag", ptr @_ZN9grpc_core29grpc_lb_weighted_target_traceE, i64 0, i32 2, i32 0, i32 0) monotonic, align 8
  %1 = and i8 %0, 1
  %tobool.i.i.i.not = icmp eq i8 %1, 0
  br i1 %tobool.i.i.i.not, label %if.end, label %if.then

if.then:                                          ; preds = %entry
  invoke void (ptr, i32, i32, ptr, ...) @gpr_log(ptr noundef nonnull @.str.18, i32 noundef 294, i32 noundef 1, ptr noundef nonnull @.str.20, ptr noundef nonnull %this)
          to label %if.end unwind label %terminate.lpad

if.end:                                           ; preds = %if.then, %entry
  %2 = getelementptr inbounds i8, ptr %this, i64 88
  %this.val.i.i = load ptr, ptr %2, align 8
  invoke fastcc void @_ZNSt8_Rb_treeINSt7__cxx1112basic_stringIcSt11char_traitsIcESaIcEEESt4pairIKS5_St10unique_ptrIN9grpc_core12_GLOBAL__N_116WeightedTargetLb13WeightedChildENS9_16OrphanableDeleteEEESt10_Select1stISF_ESt4lessIS5_ESaISF_EE8_M_eraseEPSt13_Rb_tree_nodeISF_E(ptr noundef %this.val.i.i)
          to label %_ZNSt3mapINSt7__cxx1112basic_stringIcSt11char_traitsIcESaIcEEESt10unique_ptrIN9grpc_core12_GLOBAL__N_116WeightedTargetLb13WeightedChildENS7_16OrphanableDeleteEESt4lessIS5_ESaISt4pairIKS5_SC_EEED2Ev.exit unwind label %terminate.lpad.i.i

terminate.lpad.i.i:                               ; preds = %if.end
  %3 = landingpad { ptr, i32 }
          catch ptr null
  %4 = extractvalue { ptr, i32 } %3, 0
  tail call void @__clang_call_terminate(ptr %4) #27
  unreachable

_ZNSt3mapINSt7__cxx1112basic_stringIcSt11char_traitsIcESaIcEEESt10unique_ptrIN9grpc_core12_GLOBAL__N_116WeightedTargetLb13WeightedChildENS7_16OrphanableDeleteEESt4lessIS5_ESaISt4pairIKS5_SC_EEED2Ev.exit: ; preds = %if.end
  %config_ = getelementptr inbounds i8, ptr %this, i64 56
  %config_.val = load ptr, ptr %config_, align 8
  %cmp.not.i = icmp eq ptr %config_.val, null
  br i1 %cmp.not.i, label %_ZN9grpc_core13RefCountedPtrINS_12_GLOBAL__N_122WeightedTargetLbConfigEED2Ev.exit, label %if.then.i

if.then.i:                                        ; preds = %_ZNSt3mapINSt7__cxx1112basic_stringIcSt11char_traitsIcESaIcEEESt10unique_ptrIN9grpc_core12_GLOBAL__N_116WeightedTargetLb13WeightedChildENS7_16OrphanableDeleteEESt4lessIS5_ESaISt4pairIKS5_SC_EEED2Ev.exit
  %refs_.i.i = getelementptr inbounds i8, ptr %config_.val, i64 8
  %5 = atomicrmw sub ptr %refs_.i.i, i64 1 acq_rel, align 8
  %cmp.i.i.i = icmp eq i64 %5, 1
  br i1 %cmp.i.i.i, label %if.then.i.i, label %_ZN9grpc_core13RefCountedPtrINS_12_GLOBAL__N_122WeightedTargetLbConfigEED2Ev.exit

if.then.i.i:                                      ; preds = %if.then.i
  %vtable.i.i.i = load ptr, ptr %config_.val, align 8
  %vfn.i.i.i = getelementptr inbounds i8, ptr %vtable.i.i.i, i64 8
  %6 = load ptr, ptr %vfn.i.i.i, align 8
  tail call void %6(ptr noundef nonnull align 8 dereferenceable(16) %config_.val) #26
  br label %_ZN9grpc_core13RefCountedPtrINS_12_GLOBAL__N_122WeightedTargetLbConfigEED2Ev.exit

_ZN9grpc_core13RefCountedPtrINS_12_GLOBAL__N_122WeightedTargetLbConfigEED2Ev.exit: ; preds = %_ZNSt3mapINSt7__cxx1112basic_stringIcSt11char_traitsIcESaIcEEESt10unique_ptrIN9grpc_core12_GLOBAL__N_116WeightedTargetLb13WeightedChildENS7_16OrphanableDeleteEESt4lessIS5_ESaISt4pairIKS5_SC_EEED2Ev.exit, %if.then.i, %if.then.i.i
  tail call void @_ZN9grpc_core19LoadBalancingPolicyD2Ev(ptr noundef nonnull align 8 dereferenceable(56) %this) #26
  ret void

terminate.lpad:                                   ; preds = %if.then
  %7 = landingpad { ptr, i32 }
          catch ptr null
  %8 = extractvalue { ptr, i32 } %7, 0
  tail call void @__clang_call_terminate(ptr %8) #27
  unreachable
}